; Function Attrs: nounwind uwtable
define i32 @ARKBBDPrecGetNumGfnEvals(ptr noundef %0, ptr noundef writeonly captures(none) %1) local_unnamed_addr #0 {
  %3 = alloca ptr, align 8
  %4 = alloca ptr, align 8
  call void @llvm.lifetime.start.p0(i64 8, ptr nonnull %3) #9
  call void @llvm.lifetime.start.p0(i64 8, ptr nonnull %4) #9
  %5 = call i32 @arkLs_AccessARKODELMem(ptr noundef %0, ptr noundef nonnull @__func__.ARKBBDPrecGetNumGfnEvals, ptr noundef nonnull %3, ptr noundef nonnull %4) #9
  %.not = icmp eq i32 %5, 0
  br i1 %.not, label %6, label %16

6:                                                ; preds = %2
  %7 = load ptr, ptr %4, align 8, !tbaa !62
  %8 = getelementptr inbounds nuw i8, ptr %7, i64 232
  %9 = load ptr, ptr %8, align 8, !tbaa !66
  %10 = icmp eq ptr %9, null
  br i1 %10, label %11, label %13

11:                                               ; preds = %6
  %12 = load ptr, ptr %3, align 8, !tbaa !3
  call void (ptr, i32, i32, ptr, ptr, ptr, ...) @arkProcessError(ptr noundef %12, i32 noundef -5, i32 noundef 371, ptr noundef nonnull @__func__.ARKBBDPrecGetNumGfnEvals, ptr noundef nonnull @.str, ptr noundef nonnull @.str.4) #9
  br label %16

13:                                               ; preds = %6
  %14 = getelementptr inbounds nuw i8, ptr %9, i64 144
  %15 = load i64, ptr %14, align 8, !tbaa !61
  store i64 %15, ptr %1, align 8, !tbaa !48
  br label %16

16:                                               ; preds = %2, %13, %11
  %.0 = phi i32 [ -5, %11 ], [ 0, %13 ], [ %5, %2 ]
  call void @llvm.lifetime.end.p0(i64 8, ptr nonnull %4) #9
  call void @llvm.lifetime.end.p0(i64 8, ptr nonnull %3) #9
  ret i32 %.0
}